target datalayout = "e-m:e-p270:32:32-p271:32:32-p272:64:64-i64:64-i128:128-f80:128-n8:16:32:64-S128"
target triple = "x86_64-pc-linux-gnu"

%"class.icu_77::MaybeStackArray" = type <{ ptr, i32, i8, [40 x i8], [3 x i8] }>
%"class.icu_77::CharString" = type { %"class.icu_77::MaybeStackArray", i32, [4 x i8] }

; Function Attrs: mustprogress uwtable
define weak_odr void @_ZN6icu_7715MaybeStackArrayIcLi40EE12releaseArrayEv(ptr noundef nonnull align 8 dereferenceable(53) %0) #1 comdat align 2 {
  %2 = alloca ptr, align 8
  store ptr %0, ptr %2, align 8, !tbaa !3
  %3 = load ptr, ptr %2, align 8
  %4 = getelementptr inbounds nuw %"class.icu_77::MaybeStackArray", ptr %3, i32 0, i32 2
  %5 = load i8, ptr %4, align 4, !tbaa !13
  %6 = icmp ne i8 %5, 0
  br i1 %6, label %7, label %10

7:                                                ; preds = %1
  %8 = getelementptr inbounds nuw %"class.icu_77::MaybeStackArray", ptr %3, i32 0, i32 0
  %9 = load ptr, ptr %8, align 8, !tbaa !8
  call void @uprv_free_77(ptr noundef %9)
  br label %10

10:                                               ; preds = %7, %1
  ret void
}

; Function Attrs: inlinehint mustprogress uwtable
define weak_odr noundef ptr @_ZN6icu_7715MaybeStackArrayIcLi40EE6resizeEii(ptr noundef nonnull align 8 dereferenceable(53) %0, i32 noundef %1, i32 noundef %2) #3 comdat align 2 {
  %4 = alloca ptr, align 8
  %5 = alloca ptr, align 8
  %6 = alloca i32, align 4
  %7 = alloca i32, align 4
  %8 = alloca ptr, align 8
  store ptr %0, ptr %5, align 8, !tbaa !3
  store i32 %1, ptr %6, align 4, !tbaa !14
  store i32 %2, ptr %7, align 4, !tbaa !14
  %9 = load ptr, ptr %5, align 8
  %10 = load i32, ptr %6, align 4, !tbaa !14
  %11 = icmp sgt i32 %10, 0
  br i1 %11, label %12, label %54

12:                                               ; preds = %3
  call void @llvm.lifetime.start.p0(i64 8, ptr %8) #11
  %13 = load i32, ptr %6, align 4, !tbaa !14
  %14 = sext i32 %13 to i64
  %15 = mul i64 %14, 1
  %16 = call noalias ptr @uprv_malloc_77(i64 noundef %15) #12
  store ptr %16, ptr %8, align 8, !tbaa !17
  %17 = load ptr, ptr %8, align 8, !tbaa !17
  %18 = icmp ne ptr %17, null
  br i1 %18, label %19, label %52

19:                                               ; preds = %12
  %20 = load i32, ptr %7, align 4, !tbaa !14
  %21 = icmp sgt i32 %20, 0
  br i1 %21, label %22, label %46

22:                                               ; preds = %19
  %23 = load i32, ptr %7, align 4, !tbaa !14
  %24 = getelementptr inbounds nuw %"class.icu_77::MaybeStackArray", ptr %9, i32 0, i32 1
  %25 = load i32, ptr %24, align 8, !tbaa !12
  %26 = icmp sgt i32 %23, %25
  br i1 %26, label %27, label %30

27:                                               ; preds = %22
  %28 = getelementptr inbounds nuw %"class.icu_77::MaybeStackArray", ptr %9, i32 0, i32 1
  %29 = load i32, ptr %28, align 8, !tbaa !12
  store i32 %29, ptr %7, align 4, !tbaa !14
  br label %30

30:                                               ; preds = %27, %22
  %31 = load i32, ptr %7, align 4, !tbaa !14
  %32 = load i32, ptr %6, align 4, !tbaa !14
  %33 = icmp sgt i32 %31, %32
  br i1 %33, label %34, label %36

34:                                               ; preds = %30
  %35 = load i32, ptr %6, align 4, !tbaa !14
  store i32 %35, ptr %7, align 4, !tbaa !14
  br label %36

36:                                               ; preds = %34, %30
  br label %37

37:                                               ; preds = %36
  %38 = load ptr, ptr %8, align 8, !tbaa !17
  %39 = getelementptr inbounds nuw %"class.icu_77::MaybeStackArray", ptr %9, i32 0, i32 0
  %40 = load ptr, ptr %39, align 8, !tbaa !8
  %41 = load i32, ptr %7, align 4, !tbaa !14
  %42 = sext i32 %41 to i64
  %43 = mul i64 %42, 1
  call void @llvm.memcpy.p0.p0.i64(ptr align 1 %38, ptr align 1 %40, i64 %43, i1 false)
  br label %44

44:                                               ; preds = %37
  br label %45

45:                                               ; preds = %44
  br label %46

46:                                               ; preds = %45, %19
  call void @_ZN6icu_7715MaybeStackArrayIcLi40EE12releaseArrayEv(ptr noundef nonnull align 8 dereferenceable(53) %9)
  %47 = load ptr, ptr %8, align 8, !tbaa !17
  %48 = getelementptr inbounds nuw %"class.icu_77::MaybeStackArray", ptr %9, i32 0, i32 0
  store ptr %47, ptr %48, align 8, !tbaa !8
  %49 = load i32, ptr %6, align 4, !tbaa !14
  %50 = getelementptr inbounds nuw %"class.icu_77::MaybeStackArray", ptr %9, i32 0, i32 1
  store i32 %49, ptr %50, align 8, !tbaa !12
  %51 = getelementptr inbounds nuw %"class.icu_77::MaybeStackArray", ptr %9, i32 0, i32 2
  store i8 1, ptr %51, align 4, !tbaa !13
  br label %52

52:                                               ; preds = %46, %12
  %53 = load ptr, ptr %8, align 8, !tbaa !17
  store ptr %53, ptr %4, align 8
  call void @llvm.lifetime.end.p0(i64 8, ptr %8) #11
  br label %55

54:                                               ; preds = %3
  store ptr null, ptr %4, align 8
  br label %55

55:                                               ; preds = %54, %52
  %56 = load ptr, ptr %4, align 8
  ret ptr %56
}

; Function Attrs: mustprogress nounwind uwtable
define weak_odr noundef i32 @_ZNK6icu_7715MaybeStackArrayIcLi40EE11getCapacityEv(ptr noundef nonnull align 8 dereferenceable(53) %0) #0 comdat align 2 {
  %2 = alloca ptr, align 8
  store ptr %0, ptr %2, align 8, !tbaa !3
  %3 = load ptr, ptr %2, align 8
  %4 = getelementptr inbounds nuw %"class.icu_77::MaybeStackArray", ptr %3, i32 0, i32 1
  %5 = load i32, ptr %4, align 8, !tbaa !12
  ret i32 %5
}

; Function Attrs: inlinehint mustprogress nounwind uwtable
define internal noundef signext i8 @_ZL9U_FAILURE10UErrorCode(i32 noundef %0) #2 {
  %2 = alloca i32, align 4
  store i32 %0, ptr %2, align 4, !tbaa !15
  %3 = load i32, ptr %2, align 4, !tbaa !15
  %4 = icmp sgt i32 %3, 0
  %5 = zext i1 %4 to i8
  ret i8 %5
}

; Function Attrs: mustprogress uwtable
define noundef signext i8 @_ZN6icu_7710CharString14ensureCapacityEiiR10UErrorCode(ptr noundef nonnull align 8 dereferenceable(60) %0, i32 noundef %1, i32 noundef %2, ptr noundef nonnull align 4 dereferenceable(4) %3) #1 align 2 {
  %5 = alloca i8, align 1
  %6 = alloca ptr, align 8
  %7 = alloca i32, align 4
  %8 = alloca i32, align 4
  %9 = alloca ptr, align 8
  store ptr %0, ptr %6, align 8, !tbaa !23
  store i32 %1, ptr %7, align 4, !tbaa !14
  store i32 %2, ptr %8, align 4, !tbaa !14
  store ptr %3, ptr %9, align 8, !tbaa !22
  %10 = load ptr, ptr %6, align 8
  %11 = load ptr, ptr %9, align 8, !tbaa !22
  %12 = load i32, ptr %11, align 4, !tbaa !15
  %13 = call noundef signext i8 @_ZL9U_FAILURE10UErrorCode(i32 noundef %12)
  %14 = icmp ne i8 %13, 0
  br i1 %14, label %15, label %16

15:                                               ; preds = %4
  store i8 0, ptr %5, align 1
  br label %53

16:                                               ; preds = %4
  %17 = load i32, ptr %7, align 4, !tbaa !14
  %18 = getelementptr inbounds nuw %"class.icu_77::CharString", ptr %10, i32 0, i32 0
  %19 = call noundef i32 @_ZNK6icu_7715MaybeStackArrayIcLi40EE11getCapacityEv(ptr noundef nonnull align 8 dereferenceable(53) %18)
  %20 = icmp sgt i32 %17, %19
  br i1 %20, label %21, label %52

21:                                               ; preds = %16
  %22 = load i32, ptr %8, align 4, !tbaa !14
  %23 = icmp eq i32 %22, 0
  br i1 %23, label %24, label %29

24:                                               ; preds = %21
  %25 = load i32, ptr %7, align 4, !tbaa !14
  %26 = getelementptr inbounds nuw %"class.icu_77::CharString", ptr %10, i32 0, i32 0
  %27 = call noundef i32 @_ZNK6icu_7715MaybeStackArrayIcLi40EE11getCapacityEv(ptr noundef nonnull align 8 dereferenceable(53) %26)
  %28 = add nsw i32 %25, %27
  store i32 %28, ptr %8, align 4, !tbaa !14
  br label %29

29:                                               ; preds = %24, %21
  %30 = load i32, ptr %8, align 4, !tbaa !14
  %31 = load i32, ptr %7, align 4, !tbaa !14
  %32 = icmp sle i32 %30, %31
  br i1 %32, label %41, label %33

33:                                               ; preds = %29
  %34 = getelementptr inbounds nuw %"class.icu_77::CharString", ptr %10, i32 0, i32 0
  %35 = load i32, ptr %8, align 4, !tbaa !14
  %36 = getelementptr inbounds nuw %"class.icu_77::CharString", ptr %10, i32 0, i32 1
  %37 = load i32, ptr %36, align 8, !tbaa !25
  %38 = add nsw i32 %37, 1
  %39 = call noundef ptr @_ZN6icu_7715MaybeStackArrayIcLi40EE6resizeEii(ptr noundef nonnull align 8 dereferenceable(53) %34, i32 noundef %35, i32 noundef %38)
  %40 = icmp eq ptr %39, null
  br i1 %40, label %41, label %51

41:                                               ; preds = %33, %29
  %42 = getelementptr inbounds nuw %"class.icu_77::CharString", ptr %10, i32 0, i32 0
  %43 = load i32, ptr %7, align 4, !tbaa !14
  %44 = getelementptr inbounds nuw %"class.icu_77::CharString", ptr %10, i32 0, i32 1
  %45 = load i32, ptr %44, align 8, !tbaa !25
  %46 = add nsw i32 %45, 1
  %47 = call noundef ptr @_ZN6icu_7715MaybeStackArrayIcLi40EE6resizeEii(ptr noundef nonnull align 8 dereferenceable(53) %42, i32 noundef %43, i32 noundef %46)
  %48 = icmp eq ptr %47, null
  br i1 %48, label %49, label %51

49:                                               ; preds = %41
  %50 = load ptr, ptr %9, align 8, !tbaa !22
  store i32 7, ptr %50, align 4, !tbaa !15
  store i8 0, ptr %5, align 1
  br label %53

51:                                               ; preds = %41, %33
  br label %52

52:                                               ; preds = %51, %16
  store i8 1, ptr %5, align 1
  br label %53

53:                                               ; preds = %52, %49, %15
  %54 = load i8, ptr %5, align 1
  ret i8 %54
}