; Function Attrs: mustprogress uwtable
define noundef signext range(i8 0, 2) i8 @_ZN6icu_7710CharString14ensureCapacityEiiR10UErrorCode(ptr noundef nonnull align 8 captures(none) dereferenceable(60) %0, i32 noundef %1, i32 noundef %2, ptr noundef nonnull align 4 captures(none) dereferenceable(4) %3) local_unnamed_addr #1 align 2 {
  %5 = load i32, ptr %3, align 4, !tbaa !13
  %6 = icmp slt i32 %5, 1
  br i1 %6, label %7, label %52

7:                                                ; preds = %4
  %8 = getelementptr inbounds nuw i8, ptr %0, i64 8
  %9 = load i32, ptr %8, align 8, !tbaa !10
  %10 = icmp sgt i32 %1, %9
  br i1 %10, label %11, label %52

11:                                               ; preds = %7
  %12 = icmp eq i32 %2, 0
  %13 = add nsw i32 %9, %1
  %spec.select = select i1 %12, i32 %13, i32 %2
  %.not13 = icmp sgt i32 %spec.select, %1
  br i1 %.not13, label %14, label %_ZN6icu_7715MaybeStackArrayIcLi40EE6resizeEii.exit.thread

14:                                               ; preds = %11
  %15 = getelementptr inbounds nuw i8, ptr %0, i64 56
  %16 = load i32, ptr %15, align 8, !tbaa !15
  %17 = add nsw i32 %16, 1
  %18 = icmp sgt i32 %spec.select, 0
  br i1 %18, label %19, label %_ZN6icu_7715MaybeStackArrayIcLi40EE6resizeEii.exit.thread

19:                                               ; preds = %14
  %20 = zext nneg i32 %spec.select to i64
  %21 = tail call noalias ptr @uprv_malloc_77(i64 noundef %20) #19
  %.not.i = icmp eq ptr %21, null
  br i1 %.not.i, label %_ZN6icu_7715MaybeStackArrayIcLi40EE6resizeEii.exit.thread, label %22

22:                                               ; preds = %19
  %23 = icmp sgt i32 %16, -1
  br i1 %23, label %24, label %28

24:                                               ; preds = %22
  %25 = load i32, ptr %8, align 8, !tbaa !10
  %spec.select.i = tail call i32 @llvm.smin.i32(i32 %17, i32 %25)
  %.1.i = tail call i32 @llvm.smin.i32(i32 %spec.select.i, i32 %spec.select)
  %26 = load ptr, ptr %0, align 8, !tbaa !3
  %27 = sext i32 %.1.i to i64
  tail call void @llvm.memcpy.p0.p0.i64(ptr nonnull align 1 %21, ptr align 1 %26, i64 %27, i1 false)
  br label %28

28:                                               ; preds = %24, %22
  %29 = getelementptr inbounds nuw i8, ptr %0, i64 12
  %30 = load i8, ptr %29, align 4, !tbaa !11
  %.not.i.i = icmp eq i8 %30, 0
  br i1 %.not.i.i, label %_ZN6icu_7715MaybeStackArrayIcLi40EE6resizeEii.exit, label %31

31:                                               ; preds = %28
  %32 = load ptr, ptr %0, align 8, !tbaa !3
  tail call void @uprv_free_77(ptr noundef %32)
  br label %_ZN6icu_7715MaybeStackArrayIcLi40EE6resizeEii.exit

_ZN6icu_7715MaybeStackArrayIcLi40EE6resizeEii.exit: ; preds = %28, %31
  store ptr %21, ptr %0, align 8, !tbaa !3
  store i32 %spec.select, ptr %8, align 8, !tbaa !10
  store i8 1, ptr %29, align 4, !tbaa !11
  br label %52

_ZN6icu_7715MaybeStackArrayIcLi40EE6resizeEii.exit.thread: ; preds = %14, %19, %11
  %33 = getelementptr inbounds nuw i8, ptr %0, i64 56
  %34 = load i32, ptr %33, align 8, !tbaa !15
  %35 = add nsw i32 %34, 1
  %36 = icmp sgt i32 %1, 0
  br i1 %36, label %37, label %51

37:                                               ; preds = %_ZN6icu_7715MaybeStackArrayIcLi40EE6resizeEii.exit.thread
  %38 = zext nneg i32 %1 to i64
  %39 = tail call noalias ptr @uprv_malloc_77(i64 noundef %38) #19
  %.not.i15 = icmp eq ptr %39, null
  br i1 %.not.i15, label %51, label %40

40:                                               ; preds = %37
  %41 = icmp sgt i32 %34, -1
  br i1 %41, label %42, label %46

42:                                               ; preds = %40
  %43 = load i32, ptr %8, align 8, !tbaa !10
  %spec.select.i18 = tail call i32 @llvm.smin.i32(i32 %35, i32 %43)
  %.1.i19 = tail call i32 @llvm.smin.i32(i32 %spec.select.i18, i32 %1)
  %44 = load ptr, ptr %0, align 8, !tbaa !3
  %45 = sext i32 %.1.i19 to i64
  tail call void @llvm.memcpy.p0.p0.i64(ptr nonnull align 1 %39, ptr align 1 %44, i64 %45, i1 false)
  br label %46

46:                                               ; preds = %42, %40
  %47 = getelementptr inbounds nuw i8, ptr %0, i64 12
  %48 = load i8, ptr %47, align 4, !tbaa !11
  %.not.i.i16 = icmp eq i8 %48, 0
  br i1 %.not.i.i16, label %_ZN6icu_7715MaybeStackArrayIcLi40EE6resizeEii.exit20, label %49

49:                                               ; preds = %46
  %50 = load ptr, ptr %0, align 8, !tbaa !3
  tail call void @uprv_free_77(ptr noundef %50)
  br label %_ZN6icu_7715MaybeStackArrayIcLi40EE6resizeEii.exit20

_ZN6icu_7715MaybeStackArrayIcLi40EE6resizeEii.exit20: ; preds = %46, %49
  store ptr %39, ptr %0, align 8, !tbaa !3
  store i32 %1, ptr %8, align 8, !tbaa !10
  store i8 1, ptr %47, align 4, !tbaa !11
  br label %52

51:                                               ; preds = %37, %_ZN6icu_7715MaybeStackArrayIcLi40EE6resizeEii.exit.thread
  store i32 7, ptr %3, align 4, !tbaa !13
  br label %52

52:                                               ; preds = %_ZN6icu_7715MaybeStackArrayIcLi40EE6resizeEii.exit20, %_ZN6icu_7715MaybeStackArrayIcLi40EE6resizeEii.exit, %7, %4, %51
  %.0 = phi i8 [ 0, %51 ], [ 0, %4 ], [ 1, %_ZN6icu_7715MaybeStackArrayIcLi40EE6resizeEii.exit ], [ 1, %_ZN6icu_7715MaybeStackArrayIcLi40EE6resizeEii.exit20 ], [ 1, %7 ]
  ret i8 %.0
}